target datalayout = "e-m:e-p270:32:32-p271:32:32-p272:64:64-i64:64-i128:128-f80:128-n8:16:32:64-S128"
target triple = "x86_64-pc-linux-gnu"

%struct.tng_atom = type { ptr, i64, ptr, ptr }
%struct.tng_molecule = type { i64, i64, i64, i64, i64, i64, ptr, ptr, ptr, ptr, ptr }
%struct.tng_chain = type { ptr, i64, ptr, i64, ptr }
%struct.tng_residue = type { ptr, i64, ptr, i64, i64 }

; Function Attrs: nounwind uwtable
define i32 @tng_util_molecule_particles_get(ptr noundef %0, ptr noundef %1, ptr noundef %2, ptr noundef %3, ptr noundef %4, ptr noundef %5, ptr noundef %6, ptr noundef %7, ptr noundef %8) #0 {
  %10 = alloca ptr, align 8
  %11 = alloca ptr, align 8
  %12 = alloca ptr, align 8
  %13 = alloca ptr, align 8
  %14 = alloca ptr, align 8
  %15 = alloca ptr, align 8
  %16 = alloca ptr, align 8
  %17 = alloca ptr, align 8
  %18 = alloca ptr, align 8
  %19 = alloca ptr, align 8
  %20 = alloca ptr, align 8
  %21 = alloca ptr, align 8
  %22 = alloca i64, align 8
  store ptr %0, ptr %10, align 8, !tbaa !3
  store ptr %1, ptr %11, align 8, !tbaa !45
  store ptr %2, ptr %12, align 8, !tbaa !47
  store ptr %3, ptr %13, align 8, !tbaa !201
  store ptr %4, ptr %14, align 8, !tbaa !201
  store ptr %5, ptr %15, align 8, !tbaa !201
  store ptr %6, ptr %16, align 8, !tbaa !108
  store ptr %7, ptr %17, align 8, !tbaa !201
  store ptr %8, ptr %18, align 8, !tbaa !108
  call void @llvm.lifetime.start.p0(i64 8, ptr %19) #11
  call void @llvm.lifetime.start.p0(i64 8, ptr %20) #11
  call void @llvm.lifetime.start.p0(i64 8, ptr %21) #11
  call void @llvm.lifetime.start.p0(i64 8, ptr %22) #11
  %23 = load ptr, ptr %11, align 8, !tbaa !45
  %24 = getelementptr inbounds nuw %struct.tng_molecule, ptr %23, i32 0, i32 4
  %25 = load i64, ptr %24, align 8, !tbaa !54
  %26 = load ptr, ptr %12, align 8, !tbaa !47
  store i64 %25, ptr %26, align 8, !tbaa !26
  %27 = load ptr, ptr %12, align 8, !tbaa !47
  %28 = load i64, ptr %27, align 8, !tbaa !26
  %29 = mul i64 8, %28
  %30 = call noalias ptr @malloc(i64 noundef %29) #13
  %31 = load ptr, ptr %13, align 8, !tbaa !201
  store ptr %30, ptr %31, align 8, !tbaa !203
  %32 = load ptr, ptr %12, align 8, !tbaa !47
  %33 = load i64, ptr %32, align 8, !tbaa !26
  %34 = mul i64 8, %33
  %35 = call noalias ptr @malloc(i64 noundef %34) #13
  %36 = load ptr, ptr %14, align 8, !tbaa !201
  store ptr %35, ptr %36, align 8, !tbaa !203
  %37 = load ptr, ptr %12, align 8, !tbaa !47
  %38 = load i64, ptr %37, align 8, !tbaa !26
  %39 = mul i64 8, %38
  %40 = call noalias ptr @malloc(i64 noundef %39) #13
  %41 = load ptr, ptr %15, align 8, !tbaa !201
  store ptr %40, ptr %41, align 8, !tbaa !203
  %42 = load ptr, ptr %12, align 8, !tbaa !47
  %43 = load i64, ptr %42, align 8, !tbaa !26
  %44 = mul i64 8, %43
  %45 = call noalias ptr @malloc(i64 noundef %44) #13
  %46 = load ptr, ptr %17, align 8, !tbaa !201
  store ptr %45, ptr %46, align 8, !tbaa !203
  %47 = load ptr, ptr %12, align 8, !tbaa !47
  %48 = load i64, ptr %47, align 8, !tbaa !26
  %49 = mul i64 8, %48
  %50 = call noalias ptr @malloc(i64 noundef %49) #13
  %51 = load ptr, ptr %16, align 8, !tbaa !108
  store ptr %50, ptr %51, align 8, !tbaa !47
  %52 = load ptr, ptr %12, align 8, !tbaa !47
  %53 = load i64, ptr %52, align 8, !tbaa !26
  %54 = mul i64 8, %53
  %55 = call noalias ptr @malloc(i64 noundef %54) #13
  %56 = load ptr, ptr %18, align 8, !tbaa !108
  store ptr %55, ptr %56, align 8, !tbaa !47
  store i64 0, ptr %22, align 8, !tbaa !26
  br label %57

57:                                               ; preds = %160, %9
  %58 = load i64, ptr %22, align 8, !tbaa !26
  %59 = load ptr, ptr %12, align 8, !tbaa !47
  %60 = load i64, ptr %59, align 8, !tbaa !26
  %61 = icmp slt i64 %58, %60
  br i1 %61, label %62, label %163

62:                                               ; preds = %57
  %63 = load ptr, ptr %11, align 8, !tbaa !45
  %64 = getelementptr inbounds nuw %struct.tng_molecule, ptr %63, i32 0, i32 9
  %65 = load ptr, ptr %64, align 8, !tbaa !55
  %66 = load i64, ptr %22, align 8, !tbaa !26
  %67 = getelementptr inbounds %struct.tng_atom, ptr %65, i64 %66
  store ptr %67, ptr %19, align 8, !tbaa !8
  %68 = load ptr, ptr %19, align 8, !tbaa !8
  %69 = getelementptr inbounds nuw %struct.tng_atom, ptr %68, i32 0, i32 0
  %70 = load ptr, ptr %69, align 8, !tbaa !13
  store ptr %70, ptr %20, align 8, !tbaa !18
  %71 = load ptr, ptr %20, align 8, !tbaa !18
  %72 = getelementptr inbounds nuw %struct.tng_residue, ptr %71, i32 0, i32 0
  %73 = load ptr, ptr %72, align 8, !tbaa !93
  store ptr %73, ptr %21, align 8, !tbaa !59
  %74 = load ptr, ptr %19, align 8, !tbaa !8
  %75 = getelementptr inbounds nuw %struct.tng_atom, ptr %74, i32 0, i32 3
  %76 = load ptr, ptr %75, align 8, !tbaa !22
  %77 = call i64 @strlen(ptr noundef %76) #12
  %78 = call noalias ptr @malloc(i64 noundef %77) #13
  %79 = load ptr, ptr %13, align 8, !tbaa !201
  %80 = load ptr, ptr %79, align 8, !tbaa !203
  %81 = load i64, ptr %22, align 8, !tbaa !26
  %82 = getelementptr inbounds ptr, ptr %80, i64 %81
  store ptr %78, ptr %82, align 8, !tbaa !19
  %83 = load ptr, ptr %13, align 8, !tbaa !201
  %84 = load i64, ptr %22, align 8, !tbaa !26
  %85 = getelementptr inbounds ptr, ptr %83, i64 %84
  %86 = load ptr, ptr %85, align 8, !tbaa !203
  %87 = load ptr, ptr %86, align 8, !tbaa !19
  %88 = load ptr, ptr %19, align 8, !tbaa !8
  %89 = getelementptr inbounds nuw %struct.tng_atom, ptr %88, i32 0, i32 3
  %90 = load ptr, ptr %89, align 8, !tbaa !22
  %91 = call ptr @strcpy(ptr noundef %87, ptr noundef %90) #11
  %92 = load ptr, ptr %19, align 8, !tbaa !8
  %93 = getelementptr inbounds nuw %struct.tng_atom, ptr %92, i32 0, i32 2
  %94 = load ptr, ptr %93, align 8, !tbaa !27
  %95 = call i64 @strlen(ptr noundef %94) #12
  %96 = call noalias ptr @malloc(i64 noundef %95) #13
  %97 = load ptr, ptr %14, align 8, !tbaa !201
  %98 = load ptr, ptr %97, align 8, !tbaa !203
  %99 = load i64, ptr %22, align 8, !tbaa !26
  %100 = getelementptr inbounds ptr, ptr %98, i64 %99
  store ptr %96, ptr %100, align 8, !tbaa !19
  %101 = load ptr, ptr %14, align 8, !tbaa !201
  %102 = load i64, ptr %22, align 8, !tbaa !26
  %103 = getelementptr inbounds ptr, ptr %101, i64 %102
  %104 = load ptr, ptr %103, align 8, !tbaa !203
  %105 = load ptr, ptr %104, align 8, !tbaa !19
  %106 = load ptr, ptr %19, align 8, !tbaa !8
  %107 = getelementptr inbounds nuw %struct.tng_atom, ptr %106, i32 0, i32 2
  %108 = load ptr, ptr %107, align 8, !tbaa !27
  %109 = call ptr @strcpy(ptr noundef %105, ptr noundef %108) #11
  %110 = load ptr, ptr %20, align 8, !tbaa !18
  %111 = getelementptr inbounds nuw %struct.tng_residue, ptr %110, i32 0, i32 2
  %112 = load ptr, ptr %111, align 8, !tbaa !75
  %113 = call i64 @strlen(ptr noundef %112) #12
  %114 = call noalias ptr @malloc(i64 noundef %113) #13
  %115 = load ptr, ptr %15, align 8, !tbaa !201
  %116 = load ptr, ptr %115, align 8, !tbaa !203
  %117 = load i64, ptr %22, align 8, !tbaa !26
  %118 = getelementptr inbounds ptr, ptr %116, i64 %117
  store ptr %114, ptr %118, align 8, !tbaa !19
  %119 = load ptr, ptr %15, align 8, !tbaa !201
  %120 = load i64, ptr %22, align 8, !tbaa !26
  %121 = getelementptr inbounds ptr, ptr %119, i64 %120
  %122 = load ptr, ptr %121, align 8, !tbaa !203
  %123 = load ptr, ptr %122, align 8, !tbaa !19
  %124 = load ptr, ptr %20, align 8, !tbaa !18
  %125 = getelementptr inbounds nuw %struct.tng_residue, ptr %124, i32 0, i32 2
  %126 = load ptr, ptr %125, align 8, !tbaa !75
  %127 = call ptr @strcpy(ptr noundef %123, ptr noundef %126) #11
  %128 = load ptr, ptr %21, align 8, !tbaa !59
  %129 = getelementptr inbounds nuw %struct.tng_chain, ptr %128, i32 0, i32 2
  %130 = load ptr, ptr %129, align 8, !tbaa !70
  %131 = call i64 @strlen(ptr noundef %130) #12
  %132 = call noalias ptr @malloc(i64 noundef %131) #13
  %133 = load ptr, ptr %17, align 8, !tbaa !201
  %134 = load ptr, ptr %133, align 8, !tbaa !203
  %135 = load i64, ptr %22, align 8, !tbaa !26
  %136 = getelementptr inbounds ptr, ptr %134, i64 %135
  store ptr %132, ptr %136, align 8, !tbaa !19
  %137 = load ptr, ptr %17, align 8, !tbaa !201
  %138 = load i64, ptr %22, align 8, !tbaa !26
  %139 = getelementptr inbounds ptr, ptr %137, i64 %138
  %140 = load ptr, ptr %139, align 8, !tbaa !203
  %141 = load ptr, ptr %140, align 8, !tbaa !19
  %142 = load ptr, ptr %21, align 8, !tbaa !59
  %143 = getelementptr inbounds nuw %struct.tng_chain, ptr %142, i32 0, i32 2
  %144 = load ptr, ptr %143, align 8, !tbaa !70
  %145 = call ptr @strcpy(ptr noundef %141, ptr noundef %144) #11
  %146 = load ptr, ptr %20, align 8, !tbaa !18
  %147 = getelementptr inbounds nuw %struct.tng_residue, ptr %146, i32 0, i32 1
  %148 = load i64, ptr %147, align 8, !tbaa !77
  %149 = load ptr, ptr %16, align 8, !tbaa !108
  %150 = load ptr, ptr %149, align 8, !tbaa !47
  %151 = load i64, ptr %22, align 8, !tbaa !26
  %152 = getelementptr inbounds i64, ptr %150, i64 %151
  store i64 %148, ptr %152, align 8, !tbaa !26
  %153 = load ptr, ptr %21, align 8, !tbaa !59
  %154 = getelementptr inbounds nuw %struct.tng_chain, ptr %153, i32 0, i32 1
  %155 = load i64, ptr %154, align 8, !tbaa !72
  %156 = load ptr, ptr %18, align 8, !tbaa !108
  %157 = load ptr, ptr %156, align 8, !tbaa !47
  %158 = load i64, ptr %22, align 8, !tbaa !26
  %159 = getelementptr inbounds i64, ptr %157, i64 %158
  store i64 %155, ptr %159, align 8, !tbaa !26
  br label %160

160:                                              ; preds = %62
  %161 = load i64, ptr %22, align 8, !tbaa !26
  %162 = add nsw i64 %161, 1
  store i64 %162, ptr %22, align 8, !tbaa !26
  br label %57, !llvm.loop !427

163:                                              ; preds = %57
  call void @llvm.lifetime.end.p0(i64 8, ptr %22) #11
  call void @llvm.lifetime.end.p0(i64 8, ptr %21) #11
  call void @llvm.lifetime.end.p0(i64 8, ptr %20) #11
  call void @llvm.lifetime.end.p0(i64 8, ptr %19) #11
  ret i32 0
}