; Function Attrs: nofree nounwind uwtable
define noundef i32 @tng_util_molecule_particles_get(ptr noundef readnone captures(none) %0, ptr noundef readonly captures(none) %1, ptr noundef captures(none) initializes((0, 8)) %2, ptr noundef captures(none) initializes((0, 8)) %3, ptr noundef captures(none) initializes((0, 8)) %4, ptr noundef captures(none) initializes((0, 8)) %5, ptr noundef captures(none) initializes((0, 8)) %6, ptr noundef captures(none) initializes((0, 8)) %7, ptr noundef captures(none) initializes((0, 8)) %8) local_unnamed_addr #10 {
  %10 = getelementptr inbounds nuw i8, ptr %1, i64 32
  %11 = load i64, ptr %10, align 8, !tbaa !48
  store i64 %11, ptr %2, align 8, !tbaa !38
  %12 = shl i64 %11, 3
  %13 = tail call noalias ptr @malloc(i64 noundef %12) #28
  store ptr %13, ptr %3, align 8, !tbaa !161
  %14 = tail call noalias ptr @malloc(i64 noundef %12) #28
  store ptr %14, ptr %4, align 8, !tbaa !161
  %15 = tail call noalias ptr @malloc(i64 noundef %12) #28
  store ptr %15, ptr %5, align 8, !tbaa !161
  %16 = tail call noalias ptr @malloc(i64 noundef %12) #28
  store ptr %16, ptr %7, align 8, !tbaa !161
  %17 = tail call noalias ptr @malloc(i64 noundef %12) #28
  store ptr %17, ptr %6, align 8, !tbaa !92
  %18 = tail call noalias ptr @malloc(i64 noundef %12) #28
  store ptr %18, ptr %8, align 8, !tbaa !92
  %19 = icmp sgt i64 %11, 0
  br i1 %19, label %.lr.ph, label %._crit_edge

.lr.ph:                                           ; preds = %9
  %20 = getelementptr inbounds nuw i8, ptr %1, i64 72
  br label %21

21:                                               ; preds = %.lr.ph, %21
  %.050 = phi i64 [ 0, %.lr.ph ], [ %78, %21 ]
  %22 = load ptr, ptr %20, align 8, !tbaa !66
  %23 = getelementptr inbounds nuw %struct.tng_atom, ptr %22, i64 %.050
  %24 = load ptr, ptr %23, align 8, !tbaa !3
  %25 = load ptr, ptr %24, align 8, !tbaa !85
  %26 = getelementptr inbounds nuw i8, ptr %23, i64 24
  %27 = load ptr, ptr %26, align 8, !tbaa !12
  %28 = tail call i64 @strlen(ptr noundef nonnull dereferenceable(1) %27) #27
  %29 = tail call noalias ptr @malloc(i64 noundef %28) #28
  %30 = load ptr, ptr %3, align 8, !tbaa !161
  %31 = getelementptr inbounds nuw ptr, ptr %30, i64 %.050
  store ptr %29, ptr %31, align 8, !tbaa !40
  %32 = getelementptr inbounds nuw ptr, ptr %3, i64 %.050
  %33 = load ptr, ptr %32, align 8, !tbaa !161
  %34 = load ptr, ptr %33, align 8, !tbaa !40
  %35 = load ptr, ptr %26, align 8, !tbaa !12
  %36 = tail call ptr @strcpy(ptr noundef nonnull dereferenceable(1) %34, ptr noundef nonnull dereferenceable(1) %35) #26
  %37 = getelementptr inbounds nuw i8, ptr %23, i64 16
  %38 = load ptr, ptr %37, align 8, !tbaa !16
  %39 = tail call i64 @strlen(ptr noundef nonnull dereferenceable(1) %38) #27
  %40 = tail call noalias ptr @malloc(i64 noundef %39) #28
  %41 = load ptr, ptr %4, align 8, !tbaa !161
  %42 = getelementptr inbounds nuw ptr, ptr %41, i64 %.050
  store ptr %40, ptr %42, align 8, !tbaa !40
  %43 = getelementptr inbounds nuw ptr, ptr %4, i64 %.050
  %44 = load ptr, ptr %43, align 8, !tbaa !161
  %45 = load ptr, ptr %44, align 8, !tbaa !40
  %46 = load ptr, ptr %37, align 8, !tbaa !16
  %47 = tail call ptr @strcpy(ptr noundef nonnull dereferenceable(1) %45, ptr noundef nonnull dereferenceable(1) %46) #26
  %48 = getelementptr inbounds nuw i8, ptr %24, i64 16
  %49 = load ptr, ptr %48, align 8, !tbaa !61
  %50 = tail call i64 @strlen(ptr noundef nonnull dereferenceable(1) %49) #27
  %51 = tail call noalias ptr @malloc(i64 noundef %50) #28
  %52 = load ptr, ptr %5, align 8, !tbaa !161
  %53 = getelementptr inbounds nuw ptr, ptr %52, i64 %.050
  store ptr %51, ptr %53, align 8, !tbaa !40
  %54 = getelementptr inbounds nuw ptr, ptr %5, i64 %.050
  %55 = load ptr, ptr %54, align 8, !tbaa !161
  %56 = load ptr, ptr %55, align 8, !tbaa !40
  %57 = load ptr, ptr %48, align 8, !tbaa !61
  %58 = tail call ptr @strcpy(ptr noundef nonnull dereferenceable(1) %56, ptr noundef nonnull dereferenceable(1) %57) #26
  %59 = getelementptr inbounds nuw i8, ptr %25, i64 16
  %60 = load ptr, ptr %59, align 8, !tbaa !56
  %61 = tail call i64 @strlen(ptr noundef nonnull dereferenceable(1) %60) #27
  %62 = tail call noalias ptr @malloc(i64 noundef %61) #28
  %63 = load ptr, ptr %7, align 8, !tbaa !161
  %64 = getelementptr inbounds nuw ptr, ptr %63, i64 %.050
  store ptr %62, ptr %64, align 8, !tbaa !40
  %65 = getelementptr inbounds nuw ptr, ptr %7, i64 %.050
  %66 = load ptr, ptr %65, align 8, !tbaa !161
  %67 = load ptr, ptr %66, align 8, !tbaa !40
  %68 = load ptr, ptr %59, align 8, !tbaa !56
  %69 = tail call ptr @strcpy(ptr noundef nonnull dereferenceable(1) %67, ptr noundef nonnull dereferenceable(1) %68) #26
  %70 = getelementptr inbounds nuw i8, ptr %24, i64 8
  %71 = load i64, ptr %70, align 8, !tbaa !63
  %72 = load ptr, ptr %6, align 8, !tbaa !92
  %73 = getelementptr inbounds nuw i64, ptr %72, i64 %.050
  store i64 %71, ptr %73, align 8, !tbaa !38
  %74 = getelementptr inbounds nuw i8, ptr %25, i64 8
  %75 = load i64, ptr %74, align 8, !tbaa !58
  %76 = load ptr, ptr %8, align 8, !tbaa !92
  %77 = getelementptr inbounds nuw i64, ptr %76, i64 %.050
  store i64 %75, ptr %77, align 8, !tbaa !38
  %78 = add nuw nsw i64 %.050, 1
  %79 = load i64, ptr %2, align 8, !tbaa !38
  %80 = icmp slt i64 %78, %79
  br i1 %80, label %21, label %._crit_edge, !llvm.loop !407

._crit_edge:                                      ; preds = %21, %9
  ret i32 0
}